(lp0
(dp1
S'df'
p2
(lp3
I0
aI0
aI0
aI0
aI0
asS'bl'
p4
(lp5
(lp6
S'*'
p7
aS' '
p8
ag7
ag8
ag8
ag8
ag7
ag8
ag7
ag8
ag8
ag8
ag8
ag8
ag7
ag8
ag7
ag8
ag8
ag8
ag8
ag8
ag7
ag8
ag8
ag8
ag8
ag8
ag8
ag8
ag8
ag8
aa(lp9
g8
ag8
ag8
ag8
ag7
ag8
ag8
ag8
ag8
ag8
ag8
ag8
ag7
ag8
ag8
ag8
ag8
ag8
ag8
ag8
ag7
ag8
ag8
ag8
ag8
ag8
ag8
ag8
ag8
ag8
ag8
ag8
aa(lp10
g8
ag8
ag8
ag8
ag8
ag8
ag8
ag8
ag8
ag8
ag8
ag8
ag8
ag8
ag8
ag8
ag8
ag8
ag8
ag8
ag8
ag8
ag8
ag8
ag7
ag8
ag8
ag8
ag7
ag8
ag8
ag8
aa(lp11
g8
ag8
ag8
ag8
ag8
ag8
ag8
ag8
ag8
ag8
ag8
ag8
ag8
ag8
ag8
ag8
ag8
ag8
ag8
ag8
ag8
ag8
ag8
ag8
ag8
ag8
ag7
ag8
ag8
ag8
ag7
ag8
aa(lp12
S'C1'
p13
aS'C1'
p14
aS'C1'
p15
aS'C1'
p16
aS'C1'
p17
ag8
ag8
ag8
aS'C2'
p18
ag8
ag8
ag8
aS'C2'
p19
ag8
ag8
ag8
aS'C2'
p20
ag8
ag8
ag8
aS'C2'
p21
ag8
ag8
ag8
aS'C1'
p22
aS'C1'
p23
aS'C1'
p24
aS'C1'
p25
aS'C1'
p26
ag8
ag8
ag8
aasS'units'
p27
I8
sS'bpu'
p28
I4
sa(dp29
S'df'
p30
(lp31
I0
aI0
aI0
aI0
aI0
asS'bl'
p32
(lp33
(lp34
S'*'
p35
aS' '
p36
ag35
ag36
ag36
ag36
ag35
ag36
ag35
ag36
ag36
ag36
ag36
ag36
ag35
ag36
ag35
ag36
ag36
ag36
ag36
ag36
ag35
ag36
ag36
ag36
ag36
ag36
ag36
ag36
ag36
ag36
aa(lp37
g36
ag36
ag36
ag36
ag35
ag36
ag36
ag36
ag36
ag36
ag36
ag36
ag35
ag36
ag36
ag36
ag36
ag36
ag36
ag36
ag35
ag36
ag36
ag36
ag36
ag36
ag36
ag36
ag36
ag36
ag36
ag36
aa(lp38
g36
ag36
ag36
ag36
ag36
ag36
ag36
ag36
ag36
ag36
ag36
ag36
ag36
ag36
ag36
ag36
ag36
ag36
ag36
ag36
ag36
ag36
ag36
ag36
ag35
ag36
ag36
ag36
ag35
ag36
ag36
ag36
aa(lp39
g36
ag36
ag36
ag36
ag36
ag36
ag36
ag36
ag36
ag36
ag36
ag36
ag36
ag36
ag36
ag36
ag36
ag36
ag36
ag36
ag36
ag36
ag36
ag36
ag36
ag36
ag35
ag36
ag36
ag36
ag35
ag36
aa(lp40
S'C1'
p41
aS'C1'
p42
aS'C1'
p43
aS'C1'
p44
aS'C1'
p45
ag36
ag36
ag36
ag36
ag36
ag36
ag36
ag36
ag36
ag36
ag36
ag36
ag36
ag36
ag36
ag36
ag36
ag36
ag36
aS'C1'
p46
aS'C1'
p47
aS'C1'
p48
aS'C1'
p49
aS'C1'
p50
ag36
ag36
ag36
aasS'units'
p51
I8
sS'bpu'
p52
I4
saNaNaNaNaNaNaNaNa.