(lp0
(dp1
S'df'
p2
(lp3
VC:/Users/Steve Bennett/PycharmProjects/drummachine/loops/bassdrum.1.wav
p4
aI0
aI0
aI0
aI0
aI0
asS'bl'
p5
(lp6
(lp7
S'active'
p8
aI0
aI0
aI0
ag8
aI0
aI0
aI0
ag8
aI0
aI0
aI0
ag8
aI0
aI0
aI0
ag8
aI0
aI0
aI0
ag8
aI0
aI0
aI0
ag8
aI0
aI0
aI0
ag8
aI0
aI0
aI0
aa(lp9
I0
aI0
aI0
aI0
aI0
aI0
aI0
aI0
aI0
aI0
aI0
aI0
aI0
aI0
aI0
aI0
aI0
aI0
aI0
aI0
aI0
aI0
aI0
aI0
aI0
aI0
aI0
aI0
aI0
aI0
aI0
aI0
aa(lp10
I0
aI0
aI0
aI0
aI0
aI0
aI0
aI0
aI0
aI0
aI0
aI0
aI0
aI0
aI0
aI0
aI0
aI0
aI0
aI0
aI0
aI0
aI0
aI0
aI0
aI0
aI0
aI0
aI0
aI0
aI0
aI0
aa(lp11
I0
aI0
aI0
aI0
aI0
aI0
aI0
aI0
aI0
aI0
aI0
aI0
aI0
aI0
aI0
aI0
aI0
aI0
aI0
aI0
aI0
aI0
aI0
aI0
aI0
aI0
aI0
aI0
aI0
aI0
aI0
aI0
aa(lp12
g8
aI0
aI0
aI0
aI0
aI0
aI0
aI0
aI0
aI0
aI0
aI0
aI0
aI0
aI0
aI0
aI0
aI0
aI0
aI0
aI0
aI0
aI0
aI0
aI0
aI0
aI0
aI0
aI0
aI0
aI0
aI0
aasS'units'
p13
I8
sS'bpu'
p14
I4
sa(dp15
g2
(lp16
VC:/Users/Steve Bennett/PycharmProjects/drummachine/loops/bassdrum.1.wav
p17
aI0
aI0
aI0
aI0
asg5
(lp18
(lp19
g8
aI0
ag8
aI0
ag8
aI0
ag8
aI0
ag8
aI0
ag8
aI0
ag8
aI0
ag8
aI0
ag8
aI0
ag8
aI0
ag8
aI0
ag8
aI0
ag8
aI0
ag8
aI0
ag8
aI0
ag8
aI0
aa(lp20
I0
aI0
aI0
aI0
aI0
aI0
aI0
aI0
aI0
aI0
aI0
aI0
aI0
aI0
aI0
aI0
aI0
aI0
aI0
aI0
aI0
aI0
aI0
aI0
aI0
aI0
aI0
aI0
aI0
aI0
aI0
aI0
aa(lp21
I0
aI0
aI0
aI0
aI0
aI0
aI0
aI0
aI0
aI0
aI0
aI0
aI0
aI0
aI0
aI0
aI0
aI0
aI0
aI0
aI0
aI0
aI0
aI0
aI0
aI0
aI0
aI0
aI0
aI0
aI0
aI0
aa(lp22
I0
aI0
aI0
aI0
aI0
aI0
aI0
aI0
aI0
aI0
aI0
aI0
aI0
aI0
aI0
aI0
aI0
aI0
aI0
aI0
aI0
aI0
aI0
aI0
aI0
aI0
aI0
aI0
aI0
aI0
aI0
aI0
aa(lp23
g8
aI0
aI0
aI0
aI0
aI0
aI0
aI0
aI0
aI0
aI0
aI0
aI0
aI0
aI0
aI0
aI0
aI0
aI0
aI0
aI0
aI0
aI0
aI0
aI0
aI0
aI0
aI0
aI0
aI0
aI0
aI0
aasg13
I8
sg14
I4
saNaNaNaNaNaNaNaNa.