(lp0
(dp1
S'df'
p2
(lp3
I0
aI0
aI0
aI0
aI0
asS'bl'
p4
(lp5
(lp6
S'*'
p7
aS' '
p8
ag8
ag8
ag7
ag8
ag8
ag8
ag8
ag8
ag8
ag8
ag8
ag8
ag8
ag8
ag8
ag8
ag8
ag8
ag8
ag8
ag8
ag8
ag8
ag8
ag8
ag8
ag8
ag8
ag8
ag8
aa(lp9
g8
ag8
ag7
ag8
ag8
ag8
ag8
ag8
ag8
ag8
ag8
ag8
ag8
ag8
ag8
ag8
ag8
ag8
ag8
ag8
ag8
ag8
ag8
ag8
ag8
ag8
ag8
ag8
ag8
ag8
ag8
ag8
aa(lp10
g8
ag8
ag8
ag8
ag8
ag8
ag8
ag8
ag8
ag8
ag8
ag8
ag8
ag8
ag8
ag8
ag8
ag8
ag8
ag8
ag8
ag8
ag8
ag8
ag8
ag8
ag8
ag8
ag8
ag8
ag8
ag8
aa(lp11
g8
ag8
ag8
ag8
ag8
ag8
ag8
ag8
ag8
ag8
ag8
ag8
ag8
ag8
ag8
ag8
ag8
ag8
ag8
ag8
ag8
ag8
ag8
ag8
ag8
ag8
ag8
ag8
ag8
ag8
ag8
ag8
aa(lp12
S'C1'
p13
ag8
ag8
ag8
ag8
ag8
ag8
ag8
ag8
ag8
ag8
ag8
ag8
ag8
ag8
ag8
ag8
ag8
ag8
ag8
ag8
ag8
ag8
ag8
ag8
ag8
ag8
ag8
ag8
ag8
ag8
ag8
aasS'units'
p14
I8
sS'bpu'
p15
I4
sa(dp16
g2
(lp17
I0
aI0
aI0
aI0
aI0
asg4
(lp18
(lp19
g7
ag8
ag8
ag8
ag7
ag8
ag8
ag8
ag8
ag8
ag8
ag8
ag8
ag8
ag8
ag8
ag8
ag8
ag8
ag8
ag8
ag8
ag8
ag8
ag8
ag8
ag8
ag8
ag8
ag8
ag8
ag8
aa(lp20
g8
ag8
ag8
ag8
ag8
ag8
ag8
ag8
ag8
ag8
ag8
ag8
ag8
ag8
ag8
ag8
ag8
ag8
ag8
ag8
ag8
ag8
ag8
ag8
ag8
ag8
ag8
ag8
ag8
ag8
ag8
ag8
aa(lp21
g8
ag8
ag8
ag8
ag8
ag8
ag8
ag8
ag8
ag8
ag8
ag8
ag8
ag8
ag8
ag8
ag8
ag8
ag8
ag8
ag8
ag8
ag8
ag8
ag8
ag8
ag8
ag8
ag8
ag8
ag8
ag8
aa(lp22
g8
ag8
ag8
ag8
ag8
ag8
ag8
ag8
ag8
ag8
ag8
ag8
ag8
ag8
ag8
ag8
ag8
ag8
ag8
ag8
ag8
ag8
ag8
ag8
ag8
ag8
ag8
ag8
ag8
ag8
ag8
ag8
aa(lp23
g8
ag8
aS'D1'
p24
ag8
ag8
ag8
ag8
ag8
ag8
ag8
ag8
ag8
ag8
ag8
ag8
ag8
ag8
ag8
ag8
ag8
ag8
ag8
ag8
ag8
ag8
ag8
ag8
ag8
ag8
ag8
ag8
ag8
aasg14
I8
sg15
I4
saNaNaNaNaNaNaNaNa.