(lp0
(dp1
S'df'
p2
(lp3
I0
aI0
aI0
aI0
aI0
asS'bl'
p4
(lp5
(lp6
S'active'
p7
aI0
aI0
aI0
ag7
aI0
aI0
aI0
ag7
aI0
aI0
aI0
ag7
aI0
aI0
aI0
ag7
aI0
aI0
aI0
ag7
aI0
aI0
aI0
ag7
aI0
aI0
aI0
ag7
aI0
aI0
aI0
aa(lp8
I0
aI0
ag7
aI0
aI0
aI0
ag7
aI0
aI0
aI0
ag7
aI0
aI0
aI0
ag7
aI0
aI0
aI0
ag7
aI0
aI0
aI0
ag7
aI0
aI0
aI0
ag7
aI0
aI0
aI0
ag7
aI0
aa(lp9
g7
aI0
aI0
aI0
aI0
aI0
aI0
aI0
aI0
aI0
aI0
aI0
aI0
aI0
aI0
aI0
ag7
aI0
aI0
aI0
aI0
aI0
aI0
aI0
aI0
aI0
aI0
aI0
aI0
aI0
aI0
aI0
aa(lp10
I0
aI0
aI0
aI0
ag7
aI0
aI0
aI0
aI0
aI0
aI0
aI0
aI0
aI0
aI0
aI0
aI0
aI0
aI0
aI0
ag7
aI0
aI0
aI0
aI0
aI0
aI0
aI0
aI0
aI0
aI0
aI0
aa(lp11
I0
aI0
aI0
aI0
aI0
aI0
aI0
aI0
aI0
aI0
aI0
aI0
aI0
aI0
aI0
aI0
aI0
aI0
aI0
aI0
aI0
aI0
aI0
aI0
aI0
aI0
aI0
aI0
aI0
aI0
aI0
aI0
aasS'units'
p12
I8
sS'bpu'
p13
I4
sa(dp14
g2
(lp15
I0
aI0
aI0
aI0
aI0
asg4
(lp16
(lp17
g7
aI0
aI0
aI0
aI0
aI0
aI0
aI0
ag7
aI0
aI0
aI0
aI0
aI0
aI0
aI0
ag7
aI0
aI0
aI0
aI0
aI0
aI0
aI0
ag7
aI0
aI0
aI0
ag7
aI0
aI0
aI0
aa(lp18
I0
aI0
aI0
aI0
aI0
aI0
ag7
aI0
aI0
aI0
ag7
aI0
aI0
aI0
ag7
aI0
aI0
aI0
ag7
aI0
aI0
aI0
aI0
aI0
aI0
aI0
ag7
aI0
aI0
aI0
aI0
aI0
aa(lp19
g7
aI0
aI0
aI0
aI0
aI0
aI0
aI0
aI0
aI0
aI0
aI0
aI0
aI0
aI0
aI0
ag7
aI0
aI0
aI0
aI0
aI0
aI0
aI0
aI0
aI0
aI0
aI0
aI0
aI0
aI0
aI0
aa(lp20
I0
aI0
aI0
aI0
ag7
aI0
aI0
aI0
aI0
aI0
aI0
aI0
aI0
aI0
aI0
aI0
aI0
aI0
aI0
aI0
ag7
aI0
aI0
aI0
aI0
aI0
aI0
aI0
aI0
aI0
aI0
aI0
aa(lp21
I0
aI0
aI0
aI0
aI0
aI0
aI0
aI0
aI0
aI0
aI0
aI0
aI0
aI0
aI0
aI0
aI0
aI0
aI0
aI0
aI0
aI0
aI0
aI0
aI0
aI0
aI0
aI0
aI0
aI0
aI0
aI0
aasg12
I8
sg13
I4
saNaNaNaNaNaNaNaNa.