(lp0
(dp1
S'df'
p2
(lp3
I0
aI0
aI0
aI0
aI0
asS'bl'
p4
(lp5
(lp6
I0
aI0
aI0
aI0
aI0
aI0
aI0
aI0
aI0
aI0
aI0
aI0
aI0
aI0
aI0
aI0
aI0
aI0
aI0
aI0
aI0
aI0
aI0
aI0
aI0
aI0
aI0
aI0
aI0
aI0
aI0
aI0
aa(lp7
I0
aI0
aI0
aI0
aI0
aI0
aI0
aI0
aI0
aI0
aI0
aI0
aI0
aI0
aI0
aI0
aI0
aI0
aI0
aI0
aI0
aI0
aI0
aI0
aI0
aI0
aI0
aI0
aI0
aI0
aI0
aI0
aa(lp8
I0
aI0
aI0
aI0
aI0
aI0
aI0
aI0
aI0
aI0
aI0
aI0
aI0
aI0
aI0
aI0
aI0
aI0
aI0
aI0
aI0
aI0
aI0
aI0
aI0
aI0
aI0
aI0
aI0
aI0
aI0
aI0
aa(lp9
I0
aI0
aI0
aI0
aI0
aI0
aI0
aI0
aI0
aI0
aI0
aI0
aI0
aI0
aI0
aI0
aI0
aI0
aI0
aI0
aI0
aI0
aI0
aI0
aI0
aI0
aI0
aI0
aI0
aI0
aI0
aI0
aa(lp10
S'active'
p11
aI0
aI0
aI0
ag11
aI0
aI0
aI0
ag11
aI0
aI0
aI0
ag11
aI0
ag11
aI0
aI0
aI0
ag11
aI0
ag11
aI0
ag11
aI0
ag11
aI0
ag11
aI0
ag11
aI0
ag11
aI0
aasS'units'
p12
I8
sS'bpu'
p13
I4
saNaNaNaNaNaNaNaNaNa.